ARM GAS  /tmp/ccxY4B4V.s 			page 1


   1              		.cpu cortex-m4
   2              		.arch armv7e-m
   3              		.fpu fpv4-sp-d16
   4              		.eabi_attribute 27, 1
   5              		.eabi_attribute 28, 1
   6              		.eabi_attribute 20, 1
   7              		.eabi_attribute 21, 1
   8              		.eabi_attribute 23, 3
   9              		.eabi_attribute 24, 1
  10              		.eabi_attribute 25, 1
  11              		.eabi_attribute 26, 1
  12              		.eabi_attribute 30, 1
  13              		.eabi_attribute 34, 1
  14              		.eabi_attribute 18, 4
  15              		.file	"usart.c"
  16              		.text
  17              	.Ltext0:
  18              		.cfi_sections	.debug_frame
  19              		.file 1 "Core/Src/usart.c"
  20              		.section	.text.MX_USART1_UART_Init,"ax",%progbits
  21              		.align	1
  22              		.global	MX_USART1_UART_Init
  23              		.syntax unified
  24              		.thumb
  25              		.thumb_func
  27              	MX_USART1_UART_Init:
  28              	.LFB134:
   1:Core/Src/usart.c **** /* USER CODE BEGIN Header */
   2:Core/Src/usart.c **** /**
   3:Core/Src/usart.c ****   ******************************************************************************
   4:Core/Src/usart.c ****   * @file    usart.c
   5:Core/Src/usart.c ****   * @brief   This file provides code for the configuration
   6:Core/Src/usart.c ****   *          of the USART instances.
   7:Core/Src/usart.c ****   ******************************************************************************
   8:Core/Src/usart.c ****   * @attention
   9:Core/Src/usart.c ****   *
  10:Core/Src/usart.c ****   * Copyright (c) 2024 STMicroelectronics.
  11:Core/Src/usart.c ****   * All rights reserved.
  12:Core/Src/usart.c ****   *
  13:Core/Src/usart.c ****   * This software is licensed under terms that can be found in the LICENSE file
  14:Core/Src/usart.c ****   * in the root directory of this software component.
  15:Core/Src/usart.c ****   * If no LICENSE file comes with this software, it is provided AS-IS.
  16:Core/Src/usart.c ****   *
  17:Core/Src/usart.c ****   ******************************************************************************
  18:Core/Src/usart.c ****   */
  19:Core/Src/usart.c **** /* USER CODE END Header */
  20:Core/Src/usart.c **** /* Includes ------------------------------------------------------------------*/
  21:Core/Src/usart.c **** #include "usart.h"
  22:Core/Src/usart.c **** 
  23:Core/Src/usart.c **** /* USER CODE BEGIN 0 */
  24:Core/Src/usart.c **** 
  25:Core/Src/usart.c **** /* USER CODE END 0 */
  26:Core/Src/usart.c **** 
  27:Core/Src/usart.c **** UART_HandleTypeDef huart1;
  28:Core/Src/usart.c **** UART_HandleTypeDef huart2;
  29:Core/Src/usart.c **** UART_HandleTypeDef huart3;
  30:Core/Src/usart.c **** 
ARM GAS  /tmp/ccxY4B4V.s 			page 2


  31:Core/Src/usart.c **** /* USART1 init function */
  32:Core/Src/usart.c **** 
  33:Core/Src/usart.c **** void MX_USART1_UART_Init(void)
  34:Core/Src/usart.c **** {
  29              		.loc 1 34 1 view -0
  30              		.cfi_startproc
  31              		@ args = 0, pretend = 0, frame = 0
  32              		@ frame_needed = 0, uses_anonymous_args = 0
  33 0000 08B5     		push	{r3, lr}
  34              		.cfi_def_cfa_offset 8
  35              		.cfi_offset 3, -8
  36              		.cfi_offset 14, -4
  35:Core/Src/usart.c **** 
  36:Core/Src/usart.c ****   /* USER CODE BEGIN USART1_Init 0 */
  37:Core/Src/usart.c **** 
  38:Core/Src/usart.c ****   /* USER CODE END USART1_Init 0 */
  39:Core/Src/usart.c **** 
  40:Core/Src/usart.c ****   /* USER CODE BEGIN USART1_Init 1 */
  41:Core/Src/usart.c **** 
  42:Core/Src/usart.c ****   /* USER CODE END USART1_Init 1 */
  43:Core/Src/usart.c ****   huart1.Instance = USART1;
  37              		.loc 1 43 3 view .LVU1
  38              		.loc 1 43 19 is_stmt 0 view .LVU2
  39 0002 0A48     		ldr	r0, .L5
  40 0004 0A4B     		ldr	r3, .L5+4
  41 0006 0360     		str	r3, [r0]
  44:Core/Src/usart.c ****   huart1.Init.BaudRate = 115200;
  42              		.loc 1 44 3 is_stmt 1 view .LVU3
  43              		.loc 1 44 24 is_stmt 0 view .LVU4
  44 0008 4FF4E133 		mov	r3, #115200
  45 000c 4360     		str	r3, [r0, #4]
  45:Core/Src/usart.c ****   huart1.Init.WordLength = UART_WORDLENGTH_8B;
  46              		.loc 1 45 3 is_stmt 1 view .LVU5
  47              		.loc 1 45 26 is_stmt 0 view .LVU6
  48 000e 0023     		movs	r3, #0
  49 0010 8360     		str	r3, [r0, #8]
  46:Core/Src/usart.c ****   huart1.Init.StopBits = UART_STOPBITS_1;
  50              		.loc 1 46 3 is_stmt 1 view .LVU7
  51              		.loc 1 46 24 is_stmt 0 view .LVU8
  52 0012 C360     		str	r3, [r0, #12]
  47:Core/Src/usart.c ****   huart1.Init.Parity = UART_PARITY_NONE;
  53              		.loc 1 47 3 is_stmt 1 view .LVU9
  54              		.loc 1 47 22 is_stmt 0 view .LVU10
  55 0014 0361     		str	r3, [r0, #16]
  48:Core/Src/usart.c ****   huart1.Init.Mode = UART_MODE_TX_RX;
  56              		.loc 1 48 3 is_stmt 1 view .LVU11
  57              		.loc 1 48 20 is_stmt 0 view .LVU12
  58 0016 0C22     		movs	r2, #12
  59 0018 4261     		str	r2, [r0, #20]
  49:Core/Src/usart.c ****   huart1.Init.HwFlowCtl = UART_HWCONTROL_NONE;
  60              		.loc 1 49 3 is_stmt 1 view .LVU13
  61              		.loc 1 49 25 is_stmt 0 view .LVU14
  62 001a 8361     		str	r3, [r0, #24]
  50:Core/Src/usart.c ****   huart1.Init.OverSampling = UART_OVERSAMPLING_16;
  63              		.loc 1 50 3 is_stmt 1 view .LVU15
  64              		.loc 1 50 28 is_stmt 0 view .LVU16
  65 001c C361     		str	r3, [r0, #28]
ARM GAS  /tmp/ccxY4B4V.s 			page 3


  51:Core/Src/usart.c ****   if (HAL_UART_Init(&huart1) != HAL_OK)
  66              		.loc 1 51 3 is_stmt 1 view .LVU17
  67              		.loc 1 51 7 is_stmt 0 view .LVU18
  68 001e FFF7FEFF 		bl	HAL_UART_Init
  69              	.LVL0:
  70              		.loc 1 51 6 discriminator 1 view .LVU19
  71 0022 00B9     		cbnz	r0, .L4
  72              	.L1:
  52:Core/Src/usart.c ****   {
  53:Core/Src/usart.c ****     Error_Handler();
  54:Core/Src/usart.c ****   }
  55:Core/Src/usart.c ****   /* USER CODE BEGIN USART1_Init 2 */
  56:Core/Src/usart.c **** 
  57:Core/Src/usart.c ****   /* USER CODE END USART1_Init 2 */
  58:Core/Src/usart.c **** 
  59:Core/Src/usart.c **** }
  73              		.loc 1 59 1 view .LVU20
  74 0024 08BD     		pop	{r3, pc}
  75              	.L4:
  53:Core/Src/usart.c ****   }
  76              		.loc 1 53 5 is_stmt 1 view .LVU21
  77 0026 FFF7FEFF 		bl	Error_Handler
  78              	.LVL1:
  79              		.loc 1 59 1 is_stmt 0 view .LVU22
  80 002a FBE7     		b	.L1
  81              	.L6:
  82              		.align	2
  83              	.L5:
  84 002c 00000000 		.word	huart1
  85 0030 00100140 		.word	1073811456
  86              		.cfi_endproc
  87              	.LFE134:
  89              		.section	.text.MX_USART2_UART_Init,"ax",%progbits
  90              		.align	1
  91              		.global	MX_USART2_UART_Init
  92              		.syntax unified
  93              		.thumb
  94              		.thumb_func
  96              	MX_USART2_UART_Init:
  97              	.LFB135:
  60:Core/Src/usart.c **** /* USART2 init function */
  61:Core/Src/usart.c **** 
  62:Core/Src/usart.c **** void MX_USART2_UART_Init(void)
  63:Core/Src/usart.c **** {
  98              		.loc 1 63 1 is_stmt 1 view -0
  99              		.cfi_startproc
 100              		@ args = 0, pretend = 0, frame = 0
 101              		@ frame_needed = 0, uses_anonymous_args = 0
 102 0000 08B5     		push	{r3, lr}
 103              		.cfi_def_cfa_offset 8
 104              		.cfi_offset 3, -8
 105              		.cfi_offset 14, -4
  64:Core/Src/usart.c **** 
  65:Core/Src/usart.c ****   /* USER CODE BEGIN USART2_Init 0 */
  66:Core/Src/usart.c **** 
  67:Core/Src/usart.c ****   /* USER CODE END USART2_Init 0 */
  68:Core/Src/usart.c **** 
ARM GAS  /tmp/ccxY4B4V.s 			page 4


  69:Core/Src/usart.c ****   /* USER CODE BEGIN USART2_Init 1 */
  70:Core/Src/usart.c **** 
  71:Core/Src/usart.c ****   /* USER CODE END USART2_Init 1 */
  72:Core/Src/usart.c ****   huart2.Instance = USART2;
 106              		.loc 1 72 3 view .LVU24
 107              		.loc 1 72 19 is_stmt 0 view .LVU25
 108 0002 0A48     		ldr	r0, .L11
 109 0004 0A4B     		ldr	r3, .L11+4
 110 0006 0360     		str	r3, [r0]
  73:Core/Src/usart.c ****   huart2.Init.BaudRate = 115200;
 111              		.loc 1 73 3 is_stmt 1 view .LVU26
 112              		.loc 1 73 24 is_stmt 0 view .LVU27
 113 0008 4FF4E133 		mov	r3, #115200
 114 000c 4360     		str	r3, [r0, #4]
  74:Core/Src/usart.c ****   huart2.Init.WordLength = UART_WORDLENGTH_8B;
 115              		.loc 1 74 3 is_stmt 1 view .LVU28
 116              		.loc 1 74 26 is_stmt 0 view .LVU29
 117 000e 0023     		movs	r3, #0
 118 0010 8360     		str	r3, [r0, #8]
  75:Core/Src/usart.c ****   huart2.Init.StopBits = UART_STOPBITS_1;
 119              		.loc 1 75 3 is_stmt 1 view .LVU30
 120              		.loc 1 75 24 is_stmt 0 view .LVU31
 121 0012 C360     		str	r3, [r0, #12]
  76:Core/Src/usart.c ****   huart2.Init.Parity = UART_PARITY_NONE;
 122              		.loc 1 76 3 is_stmt 1 view .LVU32
 123              		.loc 1 76 22 is_stmt 0 view .LVU33
 124 0014 0361     		str	r3, [r0, #16]
  77:Core/Src/usart.c ****   huart2.Init.Mode = UART_MODE_TX_RX;
 125              		.loc 1 77 3 is_stmt 1 view .LVU34
 126              		.loc 1 77 20 is_stmt 0 view .LVU35
 127 0016 0C22     		movs	r2, #12
 128 0018 4261     		str	r2, [r0, #20]
  78:Core/Src/usart.c ****   huart2.Init.HwFlowCtl = UART_HWCONTROL_NONE;
 129              		.loc 1 78 3 is_stmt 1 view .LVU36
 130              		.loc 1 78 25 is_stmt 0 view .LVU37
 131 001a 8361     		str	r3, [r0, #24]
  79:Core/Src/usart.c ****   huart2.Init.OverSampling = UART_OVERSAMPLING_16;
 132              		.loc 1 79 3 is_stmt 1 view .LVU38
 133              		.loc 1 79 28 is_stmt 0 view .LVU39
 134 001c C361     		str	r3, [r0, #28]
  80:Core/Src/usart.c ****   if (HAL_UART_Init(&huart2) != HAL_OK)
 135              		.loc 1 80 3 is_stmt 1 view .LVU40
 136              		.loc 1 80 7 is_stmt 0 view .LVU41
 137 001e FFF7FEFF 		bl	HAL_UART_Init
 138              	.LVL2:
 139              		.loc 1 80 6 discriminator 1 view .LVU42
 140 0022 00B9     		cbnz	r0, .L10
 141              	.L7:
  81:Core/Src/usart.c ****   {
  82:Core/Src/usart.c ****     Error_Handler();
  83:Core/Src/usart.c ****   }
  84:Core/Src/usart.c ****   /* USER CODE BEGIN USART2_Init 2 */
  85:Core/Src/usart.c **** 
  86:Core/Src/usart.c ****   /* USER CODE END USART2_Init 2 */
  87:Core/Src/usart.c **** 
  88:Core/Src/usart.c **** }
 142              		.loc 1 88 1 view .LVU43
ARM GAS  /tmp/ccxY4B4V.s 			page 5


 143 0024 08BD     		pop	{r3, pc}
 144              	.L10:
  82:Core/Src/usart.c ****   }
 145              		.loc 1 82 5 is_stmt 1 view .LVU44
 146 0026 FFF7FEFF 		bl	Error_Handler
 147              	.LVL3:
 148              		.loc 1 88 1 is_stmt 0 view .LVU45
 149 002a FBE7     		b	.L7
 150              	.L12:
 151              		.align	2
 152              	.L11:
 153 002c 00000000 		.word	huart2
 154 0030 00440040 		.word	1073759232
 155              		.cfi_endproc
 156              	.LFE135:
 158              		.section	.text.MX_USART3_UART_Init,"ax",%progbits
 159              		.align	1
 160              		.global	MX_USART3_UART_Init
 161              		.syntax unified
 162              		.thumb
 163              		.thumb_func
 165              	MX_USART3_UART_Init:
 166              	.LFB136:
  89:Core/Src/usart.c **** /* USART3 init function */
  90:Core/Src/usart.c **** 
  91:Core/Src/usart.c **** void MX_USART3_UART_Init(void)
  92:Core/Src/usart.c **** {
 167              		.loc 1 92 1 is_stmt 1 view -0
 168              		.cfi_startproc
 169              		@ args = 0, pretend = 0, frame = 0
 170              		@ frame_needed = 0, uses_anonymous_args = 0
 171 0000 08B5     		push	{r3, lr}
 172              		.cfi_def_cfa_offset 8
 173              		.cfi_offset 3, -8
 174              		.cfi_offset 14, -4
  93:Core/Src/usart.c **** 
  94:Core/Src/usart.c ****   /* USER CODE BEGIN USART3_Init 0 */
  95:Core/Src/usart.c **** 
  96:Core/Src/usart.c ****   /* USER CODE END USART3_Init 0 */
  97:Core/Src/usart.c **** 
  98:Core/Src/usart.c ****   /* USER CODE BEGIN USART3_Init 1 */
  99:Core/Src/usart.c **** 
 100:Core/Src/usart.c ****   /* USER CODE END USART3_Init 1 */
 101:Core/Src/usart.c ****   huart3.Instance = USART3;
 175              		.loc 1 101 3 view .LVU47
 176              		.loc 1 101 19 is_stmt 0 view .LVU48
 177 0002 0A48     		ldr	r0, .L17
 178 0004 0A4B     		ldr	r3, .L17+4
 179 0006 0360     		str	r3, [r0]
 102:Core/Src/usart.c ****   huart3.Init.BaudRate = 115200;
 180              		.loc 1 102 3 is_stmt 1 view .LVU49
 181              		.loc 1 102 24 is_stmt 0 view .LVU50
 182 0008 4FF4E133 		mov	r3, #115200
 183 000c 4360     		str	r3, [r0, #4]
 103:Core/Src/usart.c ****   huart3.Init.WordLength = UART_WORDLENGTH_8B;
 184              		.loc 1 103 3 is_stmt 1 view .LVU51
 185              		.loc 1 103 26 is_stmt 0 view .LVU52
ARM GAS  /tmp/ccxY4B4V.s 			page 6


 186 000e 0023     		movs	r3, #0
 187 0010 8360     		str	r3, [r0, #8]
 104:Core/Src/usart.c ****   huart3.Init.StopBits = UART_STOPBITS_1;
 188              		.loc 1 104 3 is_stmt 1 view .LVU53
 189              		.loc 1 104 24 is_stmt 0 view .LVU54
 190 0012 C360     		str	r3, [r0, #12]
 105:Core/Src/usart.c ****   huart3.Init.Parity = UART_PARITY_NONE;
 191              		.loc 1 105 3 is_stmt 1 view .LVU55
 192              		.loc 1 105 22 is_stmt 0 view .LVU56
 193 0014 0361     		str	r3, [r0, #16]
 106:Core/Src/usart.c ****   huart3.Init.Mode = UART_MODE_TX_RX;
 194              		.loc 1 106 3 is_stmt 1 view .LVU57
 195              		.loc 1 106 20 is_stmt 0 view .LVU58
 196 0016 0C22     		movs	r2, #12
 197 0018 4261     		str	r2, [r0, #20]
 107:Core/Src/usart.c ****   huart3.Init.HwFlowCtl = UART_HWCONTROL_NONE;
 198              		.loc 1 107 3 is_stmt 1 view .LVU59
 199              		.loc 1 107 25 is_stmt 0 view .LVU60
 200 001a 8361     		str	r3, [r0, #24]
 108:Core/Src/usart.c ****   huart3.Init.OverSampling = UART_OVERSAMPLING_16;
 201              		.loc 1 108 3 is_stmt 1 view .LVU61
 202              		.loc 1 108 28 is_stmt 0 view .LVU62
 203 001c C361     		str	r3, [r0, #28]
 109:Core/Src/usart.c ****   if (HAL_UART_Init(&huart3) != HAL_OK)
 204              		.loc 1 109 3 is_stmt 1 view .LVU63
 205              		.loc 1 109 7 is_stmt 0 view .LVU64
 206 001e FFF7FEFF 		bl	HAL_UART_Init
 207              	.LVL4:
 208              		.loc 1 109 6 discriminator 1 view .LVU65
 209 0022 00B9     		cbnz	r0, .L16
 210              	.L13:
 110:Core/Src/usart.c ****   {
 111:Core/Src/usart.c ****     Error_Handler();
 112:Core/Src/usart.c ****   }
 113:Core/Src/usart.c ****   /* USER CODE BEGIN USART3_Init 2 */
 114:Core/Src/usart.c **** 
 115:Core/Src/usart.c ****   /* USER CODE END USART3_Init 2 */
 116:Core/Src/usart.c **** 
 117:Core/Src/usart.c **** }
 211              		.loc 1 117 1 view .LVU66
 212 0024 08BD     		pop	{r3, pc}
 213              	.L16:
 111:Core/Src/usart.c ****   }
 214              		.loc 1 111 5 is_stmt 1 view .LVU67
 215 0026 FFF7FEFF 		bl	Error_Handler
 216              	.LVL5:
 217              		.loc 1 117 1 is_stmt 0 view .LVU68
 218 002a FBE7     		b	.L13
 219              	.L18:
 220              		.align	2
 221              	.L17:
 222 002c 00000000 		.word	huart3
 223 0030 00480040 		.word	1073760256
 224              		.cfi_endproc
 225              	.LFE136:
 227              		.section	.text.HAL_UART_MspInit,"ax",%progbits
 228              		.align	1
ARM GAS  /tmp/ccxY4B4V.s 			page 7


 229              		.global	HAL_UART_MspInit
 230              		.syntax unified
 231              		.thumb
 232              		.thumb_func
 234              	HAL_UART_MspInit:
 235              	.LVL6:
 236              	.LFB137:
 118:Core/Src/usart.c **** 
 119:Core/Src/usart.c **** void HAL_UART_MspInit(UART_HandleTypeDef* uartHandle)
 120:Core/Src/usart.c **** {
 237              		.loc 1 120 1 is_stmt 1 view -0
 238              		.cfi_startproc
 239              		@ args = 0, pretend = 0, frame = 48
 240              		@ frame_needed = 0, uses_anonymous_args = 0
 241              		.loc 1 120 1 is_stmt 0 view .LVU70
 242 0000 F0B5     		push	{r4, r5, r6, r7, lr}
 243              		.cfi_def_cfa_offset 20
 244              		.cfi_offset 4, -20
 245              		.cfi_offset 5, -16
 246              		.cfi_offset 6, -12
 247              		.cfi_offset 7, -8
 248              		.cfi_offset 14, -4
 249 0002 8DB0     		sub	sp, sp, #52
 250              		.cfi_def_cfa_offset 72
 121:Core/Src/usart.c **** 
 122:Core/Src/usart.c ****   GPIO_InitTypeDef GPIO_InitStruct = {0};
 251              		.loc 1 122 3 is_stmt 1 view .LVU71
 252              		.loc 1 122 20 is_stmt 0 view .LVU72
 253 0004 0023     		movs	r3, #0
 254 0006 0793     		str	r3, [sp, #28]
 255 0008 0893     		str	r3, [sp, #32]
 256 000a 0993     		str	r3, [sp, #36]
 257 000c 0A93     		str	r3, [sp, #40]
 258 000e 0B93     		str	r3, [sp, #44]
 123:Core/Src/usart.c ****   if(uartHandle->Instance==USART1)
 259              		.loc 1 123 3 is_stmt 1 view .LVU73
 260              		.loc 1 123 16 is_stmt 0 view .LVU74
 261 0010 0368     		ldr	r3, [r0]
 262              		.loc 1 123 5 view .LVU75
 263 0012 514A     		ldr	r2, .L27
 264 0014 9342     		cmp	r3, r2
 265 0016 07D0     		beq	.L24
 124:Core/Src/usart.c ****   {
 125:Core/Src/usart.c ****   /* USER CODE BEGIN USART1_MspInit 0 */
 126:Core/Src/usart.c **** 
 127:Core/Src/usart.c ****   /* USER CODE END USART1_MspInit 0 */
 128:Core/Src/usart.c ****     /* USART1 clock enable */
 129:Core/Src/usart.c ****     __HAL_RCC_USART1_CLK_ENABLE();
 130:Core/Src/usart.c **** 
 131:Core/Src/usart.c ****     __HAL_RCC_GPIOA_CLK_ENABLE();
 132:Core/Src/usart.c ****     /**USART1 GPIO Configuration
 133:Core/Src/usart.c ****     PA9     ------> USART1_TX
 134:Core/Src/usart.c ****     PA10     ------> USART1_RX
 135:Core/Src/usart.c ****     */
 136:Core/Src/usart.c ****     GPIO_InitStruct.Pin = GPIO_PIN_9|GPIO_PIN_10;
 137:Core/Src/usart.c ****     GPIO_InitStruct.Mode = GPIO_MODE_AF_PP;
 138:Core/Src/usart.c ****     GPIO_InitStruct.Pull = GPIO_NOPULL;
ARM GAS  /tmp/ccxY4B4V.s 			page 8


 139:Core/Src/usart.c ****     GPIO_InitStruct.Speed = GPIO_SPEED_FREQ_VERY_HIGH;
 140:Core/Src/usart.c ****     GPIO_InitStruct.Alternate = GPIO_AF7_USART1;
 141:Core/Src/usart.c ****     HAL_GPIO_Init(GPIOA, &GPIO_InitStruct);
 142:Core/Src/usart.c **** 
 143:Core/Src/usart.c ****     /* USART1 interrupt Init */
 144:Core/Src/usart.c ****     HAL_NVIC_SetPriority(USART1_IRQn, 0, 0);
 145:Core/Src/usart.c ****     HAL_NVIC_EnableIRQ(USART1_IRQn);
 146:Core/Src/usart.c ****   /* USER CODE BEGIN USART1_MspInit 1 */
 147:Core/Src/usart.c **** 
 148:Core/Src/usart.c ****   /* USER CODE END USART1_MspInit 1 */
 149:Core/Src/usart.c ****   }
 150:Core/Src/usart.c ****   else if(uartHandle->Instance==USART2)
 266              		.loc 1 150 8 is_stmt 1 view .LVU76
 267              		.loc 1 150 10 is_stmt 0 view .LVU77
 268 0018 504A     		ldr	r2, .L27+4
 269 001a 9342     		cmp	r3, r2
 270 001c 30D0     		beq	.L25
 151:Core/Src/usart.c ****   {
 152:Core/Src/usart.c ****   /* USER CODE BEGIN USART2_MspInit 0 */
 153:Core/Src/usart.c **** 
 154:Core/Src/usart.c ****   /* USER CODE END USART2_MspInit 0 */
 155:Core/Src/usart.c ****     /* USART2 clock enable */
 156:Core/Src/usart.c ****     __HAL_RCC_USART2_CLK_ENABLE();
 157:Core/Src/usart.c **** 
 158:Core/Src/usart.c ****     __HAL_RCC_GPIOA_CLK_ENABLE();
 159:Core/Src/usart.c ****     /**USART2 GPIO Configuration
 160:Core/Src/usart.c ****     PA2     ------> USART2_TX
 161:Core/Src/usart.c ****     PA3     ------> USART2_RX
 162:Core/Src/usart.c ****     */
 163:Core/Src/usart.c ****     GPIO_InitStruct.Pin = GPIO_PIN_2|GPIO_PIN_3;
 164:Core/Src/usart.c ****     GPIO_InitStruct.Mode = GPIO_MODE_AF_PP;
 165:Core/Src/usart.c ****     GPIO_InitStruct.Pull = GPIO_NOPULL;
 166:Core/Src/usart.c ****     GPIO_InitStruct.Speed = GPIO_SPEED_FREQ_VERY_HIGH;
 167:Core/Src/usart.c ****     GPIO_InitStruct.Alternate = GPIO_AF7_USART2;
 168:Core/Src/usart.c ****     HAL_GPIO_Init(GPIOA, &GPIO_InitStruct);
 169:Core/Src/usart.c **** 
 170:Core/Src/usart.c ****     /* USART2 interrupt Init */
 171:Core/Src/usart.c ****     HAL_NVIC_SetPriority(USART2_IRQn, 0, 0);
 172:Core/Src/usart.c ****     HAL_NVIC_EnableIRQ(USART2_IRQn);
 173:Core/Src/usart.c ****   /* USER CODE BEGIN USART2_MspInit 1 */
 174:Core/Src/usart.c **** 
 175:Core/Src/usart.c ****   /* USER CODE END USART2_MspInit 1 */
 176:Core/Src/usart.c ****   }
 177:Core/Src/usart.c ****   else if(uartHandle->Instance==USART3)
 271              		.loc 1 177 8 is_stmt 1 view .LVU78
 272              		.loc 1 177 10 is_stmt 0 view .LVU79
 273 001e 504A     		ldr	r2, .L27+8
 274 0020 9342     		cmp	r3, r2
 275 0022 58D0     		beq	.L26
 276              	.LVL7:
 277              	.L19:
 178:Core/Src/usart.c ****   {
 179:Core/Src/usart.c ****   /* USER CODE BEGIN USART3_MspInit 0 */
 180:Core/Src/usart.c **** 
 181:Core/Src/usart.c ****   /* USER CODE END USART3_MspInit 0 */
 182:Core/Src/usart.c ****     /* USART3 clock enable */
 183:Core/Src/usart.c ****     __HAL_RCC_USART3_CLK_ENABLE();
ARM GAS  /tmp/ccxY4B4V.s 			page 9


 184:Core/Src/usart.c **** 
 185:Core/Src/usart.c ****     __HAL_RCC_GPIOC_CLK_ENABLE();
 186:Core/Src/usart.c ****     __HAL_RCC_GPIOB_CLK_ENABLE();
 187:Core/Src/usart.c ****     /**USART3 GPIO Configuration
 188:Core/Src/usart.c ****     PC5     ------> USART3_RX
 189:Core/Src/usart.c ****     PB10     ------> USART3_TX
 190:Core/Src/usart.c ****     */
 191:Core/Src/usart.c ****     GPIO_InitStruct.Pin = GPIO_PIN_5;
 192:Core/Src/usart.c ****     GPIO_InitStruct.Mode = GPIO_MODE_AF_PP;
 193:Core/Src/usart.c ****     GPIO_InitStruct.Pull = GPIO_NOPULL;
 194:Core/Src/usart.c ****     GPIO_InitStruct.Speed = GPIO_SPEED_FREQ_VERY_HIGH;
 195:Core/Src/usart.c ****     GPIO_InitStruct.Alternate = GPIO_AF7_USART3;
 196:Core/Src/usart.c ****     HAL_GPIO_Init(GPIOC, &GPIO_InitStruct);
 197:Core/Src/usart.c **** 
 198:Core/Src/usart.c ****     GPIO_InitStruct.Pin = GPIO_PIN_10;
 199:Core/Src/usart.c ****     GPIO_InitStruct.Mode = GPIO_MODE_AF_PP;
 200:Core/Src/usart.c ****     GPIO_InitStruct.Pull = GPIO_NOPULL;
 201:Core/Src/usart.c ****     GPIO_InitStruct.Speed = GPIO_SPEED_FREQ_VERY_HIGH;
 202:Core/Src/usart.c ****     GPIO_InitStruct.Alternate = GPIO_AF7_USART3;
 203:Core/Src/usart.c ****     HAL_GPIO_Init(GPIOB, &GPIO_InitStruct);
 204:Core/Src/usart.c **** 
 205:Core/Src/usart.c ****     /* USART3 interrupt Init */
 206:Core/Src/usart.c ****     HAL_NVIC_SetPriority(USART3_IRQn, 0, 0);
 207:Core/Src/usart.c ****     HAL_NVIC_EnableIRQ(USART3_IRQn);
 208:Core/Src/usart.c ****   /* USER CODE BEGIN USART3_MspInit 1 */
 209:Core/Src/usart.c **** 
 210:Core/Src/usart.c ****   /* USER CODE END USART3_MspInit 1 */
 211:Core/Src/usart.c ****   }
 212:Core/Src/usart.c **** }
 278              		.loc 1 212 1 view .LVU80
 279 0024 0DB0     		add	sp, sp, #52
 280              		.cfi_remember_state
 281              		.cfi_def_cfa_offset 20
 282              		@ sp needed
 283 0026 F0BD     		pop	{r4, r5, r6, r7, pc}
 284              	.LVL8:
 285              	.L24:
 286              		.cfi_restore_state
 129:Core/Src/usart.c **** 
 287              		.loc 1 129 5 is_stmt 1 view .LVU81
 288              	.LBB2:
 129:Core/Src/usart.c **** 
 289              		.loc 1 129 5 view .LVU82
 290 0028 0024     		movs	r4, #0
 291 002a 0094     		str	r4, [sp]
 129:Core/Src/usart.c **** 
 292              		.loc 1 129 5 view .LVU83
 293 002c 4D4B     		ldr	r3, .L27+12
 294 002e 5A6C     		ldr	r2, [r3, #68]
 295 0030 42F01002 		orr	r2, r2, #16
 296 0034 5A64     		str	r2, [r3, #68]
 129:Core/Src/usart.c **** 
 297              		.loc 1 129 5 view .LVU84
 298 0036 5A6C     		ldr	r2, [r3, #68]
 299 0038 02F01002 		and	r2, r2, #16
 300 003c 0092     		str	r2, [sp]
 129:Core/Src/usart.c **** 
ARM GAS  /tmp/ccxY4B4V.s 			page 10


 301              		.loc 1 129 5 view .LVU85
 302 003e 009A     		ldr	r2, [sp]
 303              	.LBE2:
 129:Core/Src/usart.c **** 
 304              		.loc 1 129 5 view .LVU86
 131:Core/Src/usart.c ****     /**USART1 GPIO Configuration
 305              		.loc 1 131 5 view .LVU87
 306              	.LBB3:
 131:Core/Src/usart.c ****     /**USART1 GPIO Configuration
 307              		.loc 1 131 5 view .LVU88
 308 0040 0194     		str	r4, [sp, #4]
 131:Core/Src/usart.c ****     /**USART1 GPIO Configuration
 309              		.loc 1 131 5 view .LVU89
 310 0042 1A6B     		ldr	r2, [r3, #48]
 311 0044 42F00102 		orr	r2, r2, #1
 312 0048 1A63     		str	r2, [r3, #48]
 131:Core/Src/usart.c ****     /**USART1 GPIO Configuration
 313              		.loc 1 131 5 view .LVU90
 314 004a 1B6B     		ldr	r3, [r3, #48]
 315 004c 03F00103 		and	r3, r3, #1
 316 0050 0193     		str	r3, [sp, #4]
 131:Core/Src/usart.c ****     /**USART1 GPIO Configuration
 317              		.loc 1 131 5 view .LVU91
 318 0052 019B     		ldr	r3, [sp, #4]
 319              	.LBE3:
 131:Core/Src/usart.c ****     /**USART1 GPIO Configuration
 320              		.loc 1 131 5 view .LVU92
 136:Core/Src/usart.c ****     GPIO_InitStruct.Mode = GPIO_MODE_AF_PP;
 321              		.loc 1 136 5 view .LVU93
 136:Core/Src/usart.c ****     GPIO_InitStruct.Mode = GPIO_MODE_AF_PP;
 322              		.loc 1 136 25 is_stmt 0 view .LVU94
 323 0054 4FF4C063 		mov	r3, #1536
 324 0058 0793     		str	r3, [sp, #28]
 137:Core/Src/usart.c ****     GPIO_InitStruct.Pull = GPIO_NOPULL;
 325              		.loc 1 137 5 is_stmt 1 view .LVU95
 137:Core/Src/usart.c ****     GPIO_InitStruct.Pull = GPIO_NOPULL;
 326              		.loc 1 137 26 is_stmt 0 view .LVU96
 327 005a 0223     		movs	r3, #2
 328 005c 0893     		str	r3, [sp, #32]
 138:Core/Src/usart.c ****     GPIO_InitStruct.Speed = GPIO_SPEED_FREQ_VERY_HIGH;
 329              		.loc 1 138 5 is_stmt 1 view .LVU97
 139:Core/Src/usart.c ****     GPIO_InitStruct.Alternate = GPIO_AF7_USART1;
 330              		.loc 1 139 5 view .LVU98
 139:Core/Src/usart.c ****     GPIO_InitStruct.Alternate = GPIO_AF7_USART1;
 331              		.loc 1 139 27 is_stmt 0 view .LVU99
 332 005e 0323     		movs	r3, #3
 333 0060 0A93     		str	r3, [sp, #40]
 140:Core/Src/usart.c ****     HAL_GPIO_Init(GPIOA, &GPIO_InitStruct);
 334              		.loc 1 140 5 is_stmt 1 view .LVU100
 140:Core/Src/usart.c ****     HAL_GPIO_Init(GPIOA, &GPIO_InitStruct);
 335              		.loc 1 140 31 is_stmt 0 view .LVU101
 336 0062 0723     		movs	r3, #7
 337 0064 0B93     		str	r3, [sp, #44]
 141:Core/Src/usart.c **** 
 338              		.loc 1 141 5 is_stmt 1 view .LVU102
 339 0066 07A9     		add	r1, sp, #28
 340 0068 3F48     		ldr	r0, .L27+16
ARM GAS  /tmp/ccxY4B4V.s 			page 11


 341              	.LVL9:
 141:Core/Src/usart.c **** 
 342              		.loc 1 141 5 is_stmt 0 view .LVU103
 343 006a FFF7FEFF 		bl	HAL_GPIO_Init
 344              	.LVL10:
 144:Core/Src/usart.c ****     HAL_NVIC_EnableIRQ(USART1_IRQn);
 345              		.loc 1 144 5 is_stmt 1 view .LVU104
 346 006e 2246     		mov	r2, r4
 347 0070 2146     		mov	r1, r4
 348 0072 2520     		movs	r0, #37
 349 0074 FFF7FEFF 		bl	HAL_NVIC_SetPriority
 350              	.LVL11:
 145:Core/Src/usart.c ****   /* USER CODE BEGIN USART1_MspInit 1 */
 351              		.loc 1 145 5 view .LVU105
 352 0078 2520     		movs	r0, #37
 353 007a FFF7FEFF 		bl	HAL_NVIC_EnableIRQ
 354              	.LVL12:
 355 007e D1E7     		b	.L19
 356              	.LVL13:
 357              	.L25:
 156:Core/Src/usart.c **** 
 358              		.loc 1 156 5 view .LVU106
 359              	.LBB4:
 156:Core/Src/usart.c **** 
 360              		.loc 1 156 5 view .LVU107
 361 0080 0024     		movs	r4, #0
 362 0082 0294     		str	r4, [sp, #8]
 156:Core/Src/usart.c **** 
 363              		.loc 1 156 5 view .LVU108
 364 0084 374B     		ldr	r3, .L27+12
 365 0086 1A6C     		ldr	r2, [r3, #64]
 366 0088 42F40032 		orr	r2, r2, #131072
 367 008c 1A64     		str	r2, [r3, #64]
 156:Core/Src/usart.c **** 
 368              		.loc 1 156 5 view .LVU109
 369 008e 1A6C     		ldr	r2, [r3, #64]
 370 0090 02F40032 		and	r2, r2, #131072
 371 0094 0292     		str	r2, [sp, #8]
 156:Core/Src/usart.c **** 
 372              		.loc 1 156 5 view .LVU110
 373 0096 029A     		ldr	r2, [sp, #8]
 374              	.LBE4:
 156:Core/Src/usart.c **** 
 375              		.loc 1 156 5 view .LVU111
 158:Core/Src/usart.c ****     /**USART2 GPIO Configuration
 376              		.loc 1 158 5 view .LVU112
 377              	.LBB5:
 158:Core/Src/usart.c ****     /**USART2 GPIO Configuration
 378              		.loc 1 158 5 view .LVU113
 379 0098 0394     		str	r4, [sp, #12]
 158:Core/Src/usart.c ****     /**USART2 GPIO Configuration
 380              		.loc 1 158 5 view .LVU114
 381 009a 1A6B     		ldr	r2, [r3, #48]
 382 009c 42F00102 		orr	r2, r2, #1
 383 00a0 1A63     		str	r2, [r3, #48]
 158:Core/Src/usart.c ****     /**USART2 GPIO Configuration
 384              		.loc 1 158 5 view .LVU115
ARM GAS  /tmp/ccxY4B4V.s 			page 12


 385 00a2 1B6B     		ldr	r3, [r3, #48]
 386 00a4 03F00103 		and	r3, r3, #1
 387 00a8 0393     		str	r3, [sp, #12]
 158:Core/Src/usart.c ****     /**USART2 GPIO Configuration
 388              		.loc 1 158 5 view .LVU116
 389 00aa 039B     		ldr	r3, [sp, #12]
 390              	.LBE5:
 158:Core/Src/usart.c ****     /**USART2 GPIO Configuration
 391              		.loc 1 158 5 view .LVU117
 163:Core/Src/usart.c ****     GPIO_InitStruct.Mode = GPIO_MODE_AF_PP;
 392              		.loc 1 163 5 view .LVU118
 163:Core/Src/usart.c ****     GPIO_InitStruct.Mode = GPIO_MODE_AF_PP;
 393              		.loc 1 163 25 is_stmt 0 view .LVU119
 394 00ac 0C23     		movs	r3, #12
 395 00ae 0793     		str	r3, [sp, #28]
 164:Core/Src/usart.c ****     GPIO_InitStruct.Pull = GPIO_NOPULL;
 396              		.loc 1 164 5 is_stmt 1 view .LVU120
 164:Core/Src/usart.c ****     GPIO_InitStruct.Pull = GPIO_NOPULL;
 397              		.loc 1 164 26 is_stmt 0 view .LVU121
 398 00b0 0223     		movs	r3, #2
 399 00b2 0893     		str	r3, [sp, #32]
 165:Core/Src/usart.c ****     GPIO_InitStruct.Speed = GPIO_SPEED_FREQ_VERY_HIGH;
 400              		.loc 1 165 5 is_stmt 1 view .LVU122
 166:Core/Src/usart.c ****     GPIO_InitStruct.Alternate = GPIO_AF7_USART2;
 401              		.loc 1 166 5 view .LVU123
 166:Core/Src/usart.c ****     GPIO_InitStruct.Alternate = GPIO_AF7_USART2;
 402              		.loc 1 166 27 is_stmt 0 view .LVU124
 403 00b4 0323     		movs	r3, #3
 404 00b6 0A93     		str	r3, [sp, #40]
 167:Core/Src/usart.c ****     HAL_GPIO_Init(GPIOA, &GPIO_InitStruct);
 405              		.loc 1 167 5 is_stmt 1 view .LVU125
 167:Core/Src/usart.c ****     HAL_GPIO_Init(GPIOA, &GPIO_InitStruct);
 406              		.loc 1 167 31 is_stmt 0 view .LVU126
 407 00b8 0723     		movs	r3, #7
 408 00ba 0B93     		str	r3, [sp, #44]
 168:Core/Src/usart.c **** 
 409              		.loc 1 168 5 is_stmt 1 view .LVU127
 410 00bc 07A9     		add	r1, sp, #28
 411 00be 2A48     		ldr	r0, .L27+16
 412              	.LVL14:
 168:Core/Src/usart.c **** 
 413              		.loc 1 168 5 is_stmt 0 view .LVU128
 414 00c0 FFF7FEFF 		bl	HAL_GPIO_Init
 415              	.LVL15:
 171:Core/Src/usart.c ****     HAL_NVIC_EnableIRQ(USART2_IRQn);
 416              		.loc 1 171 5 is_stmt 1 view .LVU129
 417 00c4 2246     		mov	r2, r4
 418 00c6 2146     		mov	r1, r4
 419 00c8 2620     		movs	r0, #38
 420 00ca FFF7FEFF 		bl	HAL_NVIC_SetPriority
 421              	.LVL16:
 172:Core/Src/usart.c ****   /* USER CODE BEGIN USART2_MspInit 1 */
 422              		.loc 1 172 5 view .LVU130
 423 00ce 2620     		movs	r0, #38
 424 00d0 FFF7FEFF 		bl	HAL_NVIC_EnableIRQ
 425              	.LVL17:
 426 00d4 A6E7     		b	.L19
ARM GAS  /tmp/ccxY4B4V.s 			page 13


 427              	.LVL18:
 428              	.L26:
 183:Core/Src/usart.c **** 
 429              		.loc 1 183 5 view .LVU131
 430              	.LBB6:
 183:Core/Src/usart.c **** 
 431              		.loc 1 183 5 view .LVU132
 432 00d6 0024     		movs	r4, #0
 433 00d8 0494     		str	r4, [sp, #16]
 183:Core/Src/usart.c **** 
 434              		.loc 1 183 5 view .LVU133
 435 00da 224B     		ldr	r3, .L27+12
 436 00dc 1A6C     		ldr	r2, [r3, #64]
 437 00de 42F48022 		orr	r2, r2, #262144
 438 00e2 1A64     		str	r2, [r3, #64]
 183:Core/Src/usart.c **** 
 439              		.loc 1 183 5 view .LVU134
 440 00e4 1A6C     		ldr	r2, [r3, #64]
 441 00e6 02F48022 		and	r2, r2, #262144
 442 00ea 0492     		str	r2, [sp, #16]
 183:Core/Src/usart.c **** 
 443              		.loc 1 183 5 view .LVU135
 444 00ec 049A     		ldr	r2, [sp, #16]
 445              	.LBE6:
 183:Core/Src/usart.c **** 
 446              		.loc 1 183 5 view .LVU136
 185:Core/Src/usart.c ****     __HAL_RCC_GPIOB_CLK_ENABLE();
 447              		.loc 1 185 5 view .LVU137
 448              	.LBB7:
 185:Core/Src/usart.c ****     __HAL_RCC_GPIOB_CLK_ENABLE();
 449              		.loc 1 185 5 view .LVU138
 450 00ee 0594     		str	r4, [sp, #20]
 185:Core/Src/usart.c ****     __HAL_RCC_GPIOB_CLK_ENABLE();
 451              		.loc 1 185 5 view .LVU139
 452 00f0 1A6B     		ldr	r2, [r3, #48]
 453 00f2 42F00402 		orr	r2, r2, #4
 454 00f6 1A63     		str	r2, [r3, #48]
 185:Core/Src/usart.c ****     __HAL_RCC_GPIOB_CLK_ENABLE();
 455              		.loc 1 185 5 view .LVU140
 456 00f8 1A6B     		ldr	r2, [r3, #48]
 457 00fa 02F00402 		and	r2, r2, #4
 458 00fe 0592     		str	r2, [sp, #20]
 185:Core/Src/usart.c ****     __HAL_RCC_GPIOB_CLK_ENABLE();
 459              		.loc 1 185 5 view .LVU141
 460 0100 059A     		ldr	r2, [sp, #20]
 461              	.LBE7:
 185:Core/Src/usart.c ****     __HAL_RCC_GPIOB_CLK_ENABLE();
 462              		.loc 1 185 5 view .LVU142
 186:Core/Src/usart.c ****     /**USART3 GPIO Configuration
 463              		.loc 1 186 5 view .LVU143
 464              	.LBB8:
 186:Core/Src/usart.c ****     /**USART3 GPIO Configuration
 465              		.loc 1 186 5 view .LVU144
 466 0102 0694     		str	r4, [sp, #24]
 186:Core/Src/usart.c ****     /**USART3 GPIO Configuration
 467              		.loc 1 186 5 view .LVU145
 468 0104 1A6B     		ldr	r2, [r3, #48]
ARM GAS  /tmp/ccxY4B4V.s 			page 14


 469 0106 42F00202 		orr	r2, r2, #2
 470 010a 1A63     		str	r2, [r3, #48]
 186:Core/Src/usart.c ****     /**USART3 GPIO Configuration
 471              		.loc 1 186 5 view .LVU146
 472 010c 1B6B     		ldr	r3, [r3, #48]
 473 010e 03F00203 		and	r3, r3, #2
 474 0112 0693     		str	r3, [sp, #24]
 186:Core/Src/usart.c ****     /**USART3 GPIO Configuration
 475              		.loc 1 186 5 view .LVU147
 476 0114 069B     		ldr	r3, [sp, #24]
 477              	.LBE8:
 186:Core/Src/usart.c ****     /**USART3 GPIO Configuration
 478              		.loc 1 186 5 view .LVU148
 191:Core/Src/usart.c ****     GPIO_InitStruct.Mode = GPIO_MODE_AF_PP;
 479              		.loc 1 191 5 view .LVU149
 191:Core/Src/usart.c ****     GPIO_InitStruct.Mode = GPIO_MODE_AF_PP;
 480              		.loc 1 191 25 is_stmt 0 view .LVU150
 481 0116 2023     		movs	r3, #32
 482 0118 0793     		str	r3, [sp, #28]
 192:Core/Src/usart.c ****     GPIO_InitStruct.Pull = GPIO_NOPULL;
 483              		.loc 1 192 5 is_stmt 1 view .LVU151
 192:Core/Src/usart.c ****     GPIO_InitStruct.Pull = GPIO_NOPULL;
 484              		.loc 1 192 26 is_stmt 0 view .LVU152
 485 011a 0227     		movs	r7, #2
 486 011c 0897     		str	r7, [sp, #32]
 193:Core/Src/usart.c ****     GPIO_InitStruct.Speed = GPIO_SPEED_FREQ_VERY_HIGH;
 487              		.loc 1 193 5 is_stmt 1 view .LVU153
 194:Core/Src/usart.c ****     GPIO_InitStruct.Alternate = GPIO_AF7_USART3;
 488              		.loc 1 194 5 view .LVU154
 194:Core/Src/usart.c ****     GPIO_InitStruct.Alternate = GPIO_AF7_USART3;
 489              		.loc 1 194 27 is_stmt 0 view .LVU155
 490 011e 0326     		movs	r6, #3
 491 0120 0A96     		str	r6, [sp, #40]
 195:Core/Src/usart.c ****     HAL_GPIO_Init(GPIOC, &GPIO_InitStruct);
 492              		.loc 1 195 5 is_stmt 1 view .LVU156
 195:Core/Src/usart.c ****     HAL_GPIO_Init(GPIOC, &GPIO_InitStruct);
 493              		.loc 1 195 31 is_stmt 0 view .LVU157
 494 0122 0725     		movs	r5, #7
 495 0124 0B95     		str	r5, [sp, #44]
 196:Core/Src/usart.c **** 
 496              		.loc 1 196 5 is_stmt 1 view .LVU158
 497 0126 07A9     		add	r1, sp, #28
 498 0128 1048     		ldr	r0, .L27+20
 499              	.LVL19:
 196:Core/Src/usart.c **** 
 500              		.loc 1 196 5 is_stmt 0 view .LVU159
 501 012a FFF7FEFF 		bl	HAL_GPIO_Init
 502              	.LVL20:
 198:Core/Src/usart.c ****     GPIO_InitStruct.Mode = GPIO_MODE_AF_PP;
 503              		.loc 1 198 5 is_stmt 1 view .LVU160
 198:Core/Src/usart.c ****     GPIO_InitStruct.Mode = GPIO_MODE_AF_PP;
 504              		.loc 1 198 25 is_stmt 0 view .LVU161
 505 012e 4FF48063 		mov	r3, #1024
 506 0132 0793     		str	r3, [sp, #28]
 199:Core/Src/usart.c ****     GPIO_InitStruct.Pull = GPIO_NOPULL;
 507              		.loc 1 199 5 is_stmt 1 view .LVU162
 199:Core/Src/usart.c ****     GPIO_InitStruct.Pull = GPIO_NOPULL;
ARM GAS  /tmp/ccxY4B4V.s 			page 15


 508              		.loc 1 199 26 is_stmt 0 view .LVU163
 509 0134 0897     		str	r7, [sp, #32]
 200:Core/Src/usart.c ****     GPIO_InitStruct.Speed = GPIO_SPEED_FREQ_VERY_HIGH;
 510              		.loc 1 200 5 is_stmt 1 view .LVU164
 200:Core/Src/usart.c ****     GPIO_InitStruct.Speed = GPIO_SPEED_FREQ_VERY_HIGH;
 511              		.loc 1 200 26 is_stmt 0 view .LVU165
 512 0136 0994     		str	r4, [sp, #36]
 201:Core/Src/usart.c ****     GPIO_InitStruct.Alternate = GPIO_AF7_USART3;
 513              		.loc 1 201 5 is_stmt 1 view .LVU166
 201:Core/Src/usart.c ****     GPIO_InitStruct.Alternate = GPIO_AF7_USART3;
 514              		.loc 1 201 27 is_stmt 0 view .LVU167
 515 0138 0A96     		str	r6, [sp, #40]
 202:Core/Src/usart.c ****     HAL_GPIO_Init(GPIOB, &GPIO_InitStruct);
 516              		.loc 1 202 5 is_stmt 1 view .LVU168
 202:Core/Src/usart.c ****     HAL_GPIO_Init(GPIOB, &GPIO_InitStruct);
 517              		.loc 1 202 31 is_stmt 0 view .LVU169
 518 013a 0B95     		str	r5, [sp, #44]
 203:Core/Src/usart.c **** 
 519              		.loc 1 203 5 is_stmt 1 view .LVU170
 520 013c 07A9     		add	r1, sp, #28
 521 013e 0C48     		ldr	r0, .L27+24
 522 0140 FFF7FEFF 		bl	HAL_GPIO_Init
 523              	.LVL21:
 206:Core/Src/usart.c ****     HAL_NVIC_EnableIRQ(USART3_IRQn);
 524              		.loc 1 206 5 view .LVU171
 525 0144 2246     		mov	r2, r4
 526 0146 2146     		mov	r1, r4
 527 0148 2720     		movs	r0, #39
 528 014a FFF7FEFF 		bl	HAL_NVIC_SetPriority
 529              	.LVL22:
 207:Core/Src/usart.c ****   /* USER CODE BEGIN USART3_MspInit 1 */
 530              		.loc 1 207 5 view .LVU172
 531 014e 2720     		movs	r0, #39
 532 0150 FFF7FEFF 		bl	HAL_NVIC_EnableIRQ
 533              	.LVL23:
 534              		.loc 1 212 1 is_stmt 0 view .LVU173
 535 0154 66E7     		b	.L19
 536              	.L28:
 537 0156 00BF     		.align	2
 538              	.L27:
 539 0158 00100140 		.word	1073811456
 540 015c 00440040 		.word	1073759232
 541 0160 00480040 		.word	1073760256
 542 0164 00380240 		.word	1073887232
 543 0168 00000240 		.word	1073872896
 544 016c 00080240 		.word	1073874944
 545 0170 00040240 		.word	1073873920
 546              		.cfi_endproc
 547              	.LFE137:
 549              		.section	.text.HAL_UART_MspDeInit,"ax",%progbits
 550              		.align	1
 551              		.global	HAL_UART_MspDeInit
 552              		.syntax unified
 553              		.thumb
 554              		.thumb_func
 556              	HAL_UART_MspDeInit:
 557              	.LVL24:
ARM GAS  /tmp/ccxY4B4V.s 			page 16


 558              	.LFB138:
 213:Core/Src/usart.c **** 
 214:Core/Src/usart.c **** void HAL_UART_MspDeInit(UART_HandleTypeDef* uartHandle)
 215:Core/Src/usart.c **** {
 559              		.loc 1 215 1 is_stmt 1 view -0
 560              		.cfi_startproc
 561              		@ args = 0, pretend = 0, frame = 0
 562              		@ frame_needed = 0, uses_anonymous_args = 0
 563              		.loc 1 215 1 is_stmt 0 view .LVU175
 564 0000 08B5     		push	{r3, lr}
 565              		.cfi_def_cfa_offset 8
 566              		.cfi_offset 3, -8
 567              		.cfi_offset 14, -4
 216:Core/Src/usart.c **** 
 217:Core/Src/usart.c ****   if(uartHandle->Instance==USART1)
 568              		.loc 1 217 3 is_stmt 1 view .LVU176
 569              		.loc 1 217 16 is_stmt 0 view .LVU177
 570 0002 0368     		ldr	r3, [r0]
 571              		.loc 1 217 5 view .LVU178
 572 0004 1C4A     		ldr	r2, .L37
 573 0006 9342     		cmp	r3, r2
 574 0008 06D0     		beq	.L34
 218:Core/Src/usart.c ****   {
 219:Core/Src/usart.c ****   /* USER CODE BEGIN USART1_MspDeInit 0 */
 220:Core/Src/usart.c **** 
 221:Core/Src/usart.c ****   /* USER CODE END USART1_MspDeInit 0 */
 222:Core/Src/usart.c ****     /* Peripheral clock disable */
 223:Core/Src/usart.c ****     __HAL_RCC_USART1_CLK_DISABLE();
 224:Core/Src/usart.c **** 
 225:Core/Src/usart.c ****     /**USART1 GPIO Configuration
 226:Core/Src/usart.c ****     PA9     ------> USART1_TX
 227:Core/Src/usart.c ****     PA10     ------> USART1_RX
 228:Core/Src/usart.c ****     */
 229:Core/Src/usart.c ****     HAL_GPIO_DeInit(GPIOA, GPIO_PIN_9|GPIO_PIN_10);
 230:Core/Src/usart.c **** 
 231:Core/Src/usart.c ****     /* USART1 interrupt Deinit */
 232:Core/Src/usart.c ****     HAL_NVIC_DisableIRQ(USART1_IRQn);
 233:Core/Src/usart.c ****   /* USER CODE BEGIN USART1_MspDeInit 1 */
 234:Core/Src/usart.c **** 
 235:Core/Src/usart.c ****   /* USER CODE END USART1_MspDeInit 1 */
 236:Core/Src/usart.c ****   }
 237:Core/Src/usart.c ****   else if(uartHandle->Instance==USART2)
 575              		.loc 1 237 8 is_stmt 1 view .LVU179
 576              		.loc 1 237 10 is_stmt 0 view .LVU180
 577 000a 1C4A     		ldr	r2, .L37+4
 578 000c 9342     		cmp	r3, r2
 579 000e 12D0     		beq	.L35
 238:Core/Src/usart.c ****   {
 239:Core/Src/usart.c ****   /* USER CODE BEGIN USART2_MspDeInit 0 */
 240:Core/Src/usart.c **** 
 241:Core/Src/usart.c ****   /* USER CODE END USART2_MspDeInit 0 */
 242:Core/Src/usart.c ****     /* Peripheral clock disable */
 243:Core/Src/usart.c ****     __HAL_RCC_USART2_CLK_DISABLE();
 244:Core/Src/usart.c **** 
 245:Core/Src/usart.c ****     /**USART2 GPIO Configuration
 246:Core/Src/usart.c ****     PA2     ------> USART2_TX
 247:Core/Src/usart.c ****     PA3     ------> USART2_RX
ARM GAS  /tmp/ccxY4B4V.s 			page 17


 248:Core/Src/usart.c ****     */
 249:Core/Src/usart.c ****     HAL_GPIO_DeInit(GPIOA, GPIO_PIN_2|GPIO_PIN_3);
 250:Core/Src/usart.c **** 
 251:Core/Src/usart.c ****     /* USART2 interrupt Deinit */
 252:Core/Src/usart.c ****     HAL_NVIC_DisableIRQ(USART2_IRQn);
 253:Core/Src/usart.c ****   /* USER CODE BEGIN USART2_MspDeInit 1 */
 254:Core/Src/usart.c **** 
 255:Core/Src/usart.c ****   /* USER CODE END USART2_MspDeInit 1 */
 256:Core/Src/usart.c ****   }
 257:Core/Src/usart.c ****   else if(uartHandle->Instance==USART3)
 580              		.loc 1 257 8 is_stmt 1 view .LVU181
 581              		.loc 1 257 10 is_stmt 0 view .LVU182
 582 0010 1B4A     		ldr	r2, .L37+8
 583 0012 9342     		cmp	r3, r2
 584 0014 1DD0     		beq	.L36
 585              	.LVL25:
 586              	.L29:
 258:Core/Src/usart.c ****   {
 259:Core/Src/usart.c ****   /* USER CODE BEGIN USART3_MspDeInit 0 */
 260:Core/Src/usart.c **** 
 261:Core/Src/usart.c ****   /* USER CODE END USART3_MspDeInit 0 */
 262:Core/Src/usart.c ****     /* Peripheral clock disable */
 263:Core/Src/usart.c ****     __HAL_RCC_USART3_CLK_DISABLE();
 264:Core/Src/usart.c **** 
 265:Core/Src/usart.c ****     /**USART3 GPIO Configuration
 266:Core/Src/usart.c ****     PC5     ------> USART3_RX
 267:Core/Src/usart.c ****     PB10     ------> USART3_TX
 268:Core/Src/usart.c ****     */
 269:Core/Src/usart.c ****     HAL_GPIO_DeInit(GPIOC, GPIO_PIN_5);
 270:Core/Src/usart.c **** 
 271:Core/Src/usart.c ****     HAL_GPIO_DeInit(GPIOB, GPIO_PIN_10);
 272:Core/Src/usart.c **** 
 273:Core/Src/usart.c ****     /* USART3 interrupt Deinit */
 274:Core/Src/usart.c ****     HAL_NVIC_DisableIRQ(USART3_IRQn);
 275:Core/Src/usart.c ****   /* USER CODE BEGIN USART3_MspDeInit 1 */
 276:Core/Src/usart.c **** 
 277:Core/Src/usart.c ****   /* USER CODE END USART3_MspDeInit 1 */
 278:Core/Src/usart.c ****   }
 279:Core/Src/usart.c **** }
 587              		.loc 1 279 1 view .LVU183
 588 0016 08BD     		pop	{r3, pc}
 589              	.LVL26:
 590              	.L34:
 223:Core/Src/usart.c **** 
 591              		.loc 1 223 5 is_stmt 1 view .LVU184
 592 0018 02F59432 		add	r2, r2, #75776
 593 001c 536C     		ldr	r3, [r2, #68]
 594 001e 23F01003 		bic	r3, r3, #16
 595 0022 5364     		str	r3, [r2, #68]
 229:Core/Src/usart.c **** 
 596              		.loc 1 229 5 view .LVU185
 597 0024 4FF4C061 		mov	r1, #1536
 598 0028 1648     		ldr	r0, .L37+12
 599              	.LVL27:
 229:Core/Src/usart.c **** 
 600              		.loc 1 229 5 is_stmt 0 view .LVU186
 601 002a FFF7FEFF 		bl	HAL_GPIO_DeInit
ARM GAS  /tmp/ccxY4B4V.s 			page 18


 602              	.LVL28:
 232:Core/Src/usart.c ****   /* USER CODE BEGIN USART1_MspDeInit 1 */
 603              		.loc 1 232 5 is_stmt 1 view .LVU187
 604 002e 2520     		movs	r0, #37
 605 0030 FFF7FEFF 		bl	HAL_NVIC_DisableIRQ
 606              	.LVL29:
 607 0034 EFE7     		b	.L29
 608              	.LVL30:
 609              	.L35:
 243:Core/Src/usart.c **** 
 610              		.loc 1 243 5 view .LVU188
 611 0036 02F5FA32 		add	r2, r2, #128000
 612 003a 136C     		ldr	r3, [r2, #64]
 613 003c 23F40033 		bic	r3, r3, #131072
 614 0040 1364     		str	r3, [r2, #64]
 249:Core/Src/usart.c **** 
 615              		.loc 1 249 5 view .LVU189
 616 0042 0C21     		movs	r1, #12
 617 0044 0F48     		ldr	r0, .L37+12
 618              	.LVL31:
 249:Core/Src/usart.c **** 
 619              		.loc 1 249 5 is_stmt 0 view .LVU190
 620 0046 FFF7FEFF 		bl	HAL_GPIO_DeInit
 621              	.LVL32:
 252:Core/Src/usart.c ****   /* USER CODE BEGIN USART2_MspDeInit 1 */
 622              		.loc 1 252 5 is_stmt 1 view .LVU191
 623 004a 2620     		movs	r0, #38
 624 004c FFF7FEFF 		bl	HAL_NVIC_DisableIRQ
 625              	.LVL33:
 626 0050 E1E7     		b	.L29
 627              	.LVL34:
 628              	.L36:
 263:Core/Src/usart.c **** 
 629              		.loc 1 263 5 view .LVU192
 630 0052 02F5F832 		add	r2, r2, #126976
 631 0056 136C     		ldr	r3, [r2, #64]
 632 0058 23F48023 		bic	r3, r3, #262144
 633 005c 1364     		str	r3, [r2, #64]
 269:Core/Src/usart.c **** 
 634              		.loc 1 269 5 view .LVU193
 635 005e 2021     		movs	r1, #32
 636 0060 0948     		ldr	r0, .L37+16
 637              	.LVL35:
 269:Core/Src/usart.c **** 
 638              		.loc 1 269 5 is_stmt 0 view .LVU194
 639 0062 FFF7FEFF 		bl	HAL_GPIO_DeInit
 640              	.LVL36:
 271:Core/Src/usart.c **** 
 641              		.loc 1 271 5 is_stmt 1 view .LVU195
 642 0066 4FF48061 		mov	r1, #1024
 643 006a 0848     		ldr	r0, .L37+20
 644 006c FFF7FEFF 		bl	HAL_GPIO_DeInit
 645              	.LVL37:
 274:Core/Src/usart.c ****   /* USER CODE BEGIN USART3_MspDeInit 1 */
 646              		.loc 1 274 5 view .LVU196
 647 0070 2720     		movs	r0, #39
 648 0072 FFF7FEFF 		bl	HAL_NVIC_DisableIRQ
ARM GAS  /tmp/ccxY4B4V.s 			page 19


 649              	.LVL38:
 650              		.loc 1 279 1 is_stmt 0 view .LVU197
 651 0076 CEE7     		b	.L29
 652              	.L38:
 653              		.align	2
 654              	.L37:
 655 0078 00100140 		.word	1073811456
 656 007c 00440040 		.word	1073759232
 657 0080 00480040 		.word	1073760256
 658 0084 00000240 		.word	1073872896
 659 0088 00080240 		.word	1073874944
 660 008c 00040240 		.word	1073873920
 661              		.cfi_endproc
 662              	.LFE138:
 664              		.global	huart3
 665              		.section	.bss.huart3,"aw",%nobits
 666              		.align	2
 669              	huart3:
 670 0000 00000000 		.space	72
 670      00000000 
 670      00000000 
 670      00000000 
 670      00000000 
 671              		.global	huart2
 672              		.section	.bss.huart2,"aw",%nobits
 673              		.align	2
 676              	huart2:
 677 0000 00000000 		.space	72
 677      00000000 
 677      00000000 
 677      00000000 
 677      00000000 
 678              		.global	huart1
 679              		.section	.bss.huart1,"aw",%nobits
 680              		.align	2
 683              	huart1:
 684 0000 00000000 		.space	72
 684      00000000 
 684      00000000 
 684      00000000 
 684      00000000 
 685              		.text
 686              	.Letext0:
 687              		.file 2 "Drivers/CMSIS/Device/ST/STM32F4xx/Include/stm32f446xx.h"
 688              		.file 3 "/home/dorijan/.config/Code/User/globalStorage/bmd.stm32-for-vscode/@xpack-dev-tools/arm-n
 689              		.file 4 "/home/dorijan/.config/Code/User/globalStorage/bmd.stm32-for-vscode/@xpack-dev-tools/arm-n
 690              		.file 5 "Drivers/STM32F4xx_HAL_Driver/Inc/stm32f4xx_hal_def.h"
 691              		.file 6 "Drivers/STM32F4xx_HAL_Driver/Inc/stm32f4xx_hal_gpio.h"
 692              		.file 7 "Drivers/STM32F4xx_HAL_Driver/Inc/stm32f4xx_hal_dma.h"
 693              		.file 8 "Drivers/STM32F4xx_HAL_Driver/Inc/stm32f4xx_hal_uart.h"
 694              		.file 9 "Core/Inc/usart.h"
 695              		.file 10 "Drivers/STM32F4xx_HAL_Driver/Inc/stm32f4xx_hal_cortex.h"
 696              		.file 11 "Core/Inc/main.h"
ARM GAS  /tmp/ccxY4B4V.s 			page 20

